; Function Attrs: mustprogress uwtable
define hidden void @_ZN17expr_substitution5resetEv(ptr noundef nonnull align 8 dereferenceable(49) %0) local_unnamed_addr #3 align 2 {
  %2 = load ptr, ptr %0, align 8, !tbaa !100
  %3 = getelementptr inbounds nuw i8, ptr %0, i64 8
  tail call void @_Z22dec_ref_map_key_valuesI11ast_managerS0_7obj_mapI4exprPS2_EEvRT_RT0_RT1_(ptr noundef nonnull align 8 dereferenceable(976) %2, ptr noundef nonnull align 8 dereferenceable(976) %2, ptr noundef nonnull align 8 dereferenceable(24) %3)
  %4 = getelementptr inbounds nuw i8, ptr %0, i64 48
  %5 = load i8, ptr %4, align 8
  %6 = and i8 %5, 2
  %.not = icmp eq i8 %6, 0
  br i1 %.not, label %11, label %7

7:                                                ; preds = %1
  %8 = load ptr, ptr %0, align 8, !tbaa !100
  %9 = getelementptr inbounds nuw i8, ptr %0, i64 32
  %10 = load ptr, ptr %9, align 8, !tbaa !13
  tail call void @_Z18dec_ref_map_valuesI11ast_manager7obj_mapI4exprP3appEEvRT_RT0_(ptr noundef nonnull align 8 dereferenceable(976) %8, ptr noundef nonnull align 8 dereferenceable(24) %10)
  %.pre = load i8, ptr %4, align 8
  br label %11

11:                                               ; preds = %7, %1
  %12 = phi i8 [ %.pre, %7 ], [ %5, %1 ]
  %13 = and i8 %12, 1
  %.not1 = icmp eq i8 %13, 0
  br i1 %.not1, label %18, label %14

14:                                               ; preds = %11
  %15 = load ptr, ptr %0, align 8, !tbaa !100
  %16 = getelementptr inbounds nuw i8, ptr %0, i64 40
  %17 = load ptr, ptr %16, align 8, !tbaa !22
  tail call void @_Z18dec_ref_map_valuesI11ast_manager7obj_mapI4exprPN18dependency_managerINS0_22expr_dependency_configEE10dependencyEEEvRT_RT0_(ptr noundef nonnull align 8 dereferenceable(976) %15, ptr noundef nonnull align 8 dereferenceable(24) %17)
  br label %18

18:                                               ; preds = %14, %11
  ret void
}